target datalayout = "e-m:e-p270:32:32-p271:32:32-p272:64:64-i64:64-i128:128-f80:128-n8:16:32:64-S128"
target triple = "x86_64-pc-linux-gnu"

; Function Attrs: mustprogress nounwind uwtable
define ptr @u_skipWhitespace(ptr noundef %0) #0 {
  %2 = alloca ptr, align 8
  store ptr %0, ptr %2, align 8, !tbaa !3
  br label %3

3:                                                ; preds = %25, %1
  %4 = load ptr, ptr %2, align 8, !tbaa !3
  %5 = load i8, ptr %4, align 1, !tbaa !8
  %6 = sext i8 %5 to i32
  %7 = icmp eq i32 %6, 32
  br i1 %7, label %23, label %8

8:                                                ; preds = %3
  %9 = load ptr, ptr %2, align 8, !tbaa !3
  %10 = load i8, ptr %9, align 1, !tbaa !8
  %11 = sext i8 %10 to i32
  %12 = icmp eq i32 %11, 9
  br i1 %12, label %23, label %13

13:                                               ; preds = %8
  %14 = load ptr, ptr %2, align 8, !tbaa !3
  %15 = load i8, ptr %14, align 1, !tbaa !8
  %16 = sext i8 %15 to i32
  %17 = icmp eq i32 %16, 13
  br i1 %17, label %23, label %18

18:                                               ; preds = %13
  %19 = load ptr, ptr %2, align 8, !tbaa !3
  %20 = load i8, ptr %19, align 1, !tbaa !8
  %21 = sext i8 %20 to i32
  %22 = icmp eq i32 %21, 10
  br label %23

23:                                               ; preds = %18, %13, %8, %3
  %24 = phi i1 [ true, %13 ], [ true, %8 ], [ true, %3 ], [ %22, %18 ]
  br i1 %24, label %25, label %28

25:                                               ; preds = %23
  %26 = load ptr, ptr %2, align 8, !tbaa !3
  %27 = getelementptr inbounds nuw i8, ptr %26, i32 1
  store ptr %27, ptr %2, align 8, !tbaa !3
  br label %3, !llvm.loop !9

28:                                               ; preds = %23
  %29 = load ptr, ptr %2, align 8, !tbaa !3
  ret ptr %29
}

; Function Attrs: inlinehint mustprogress nounwind uwtable
define internal noundef signext i8 @_ZL9U_FAILURE10UErrorCode(i32 noundef %0) #4 {
  %2 = alloca i32, align 4
  store i32 %0, ptr %2, align 4, !tbaa !18
  %3 = load i32, ptr %2, align 4, !tbaa !18
  %4 = icmp sgt i32 %3, 0
  %5 = zext i1 %4 to i8
  ret i8 %5
}

; Function Attrs: mustprogress uwtable
define i32 @u_parseCodePoints(ptr noundef %0, ptr noundef %1, i32 noundef %2, ptr noundef %3) #3 {
  %5 = alloca i32, align 4
  %6 = alloca ptr, align 8
  %7 = alloca ptr, align 8
  %8 = alloca i32, align 4
  %9 = alloca ptr, align 8
  %10 = alloca ptr, align 8
  %11 = alloca i32, align 4
  %12 = alloca i32, align 4
  %13 = alloca i32, align 4
  store ptr %0, ptr %6, align 8, !tbaa !3
  store ptr %1, ptr %7, align 8, !tbaa !26
  store i32 %2, ptr %8, align 4, !tbaa !15
  store ptr %3, ptr %9, align 8, !tbaa !17
  call void @llvm.lifetime.start.p0(i64 8, ptr %10) #7
  call void @llvm.lifetime.start.p0(i64 4, ptr %11) #7
  call void @llvm.lifetime.start.p0(i64 4, ptr %12) #7
  %14 = load ptr, ptr %9, align 8, !tbaa !17
  %15 = load i32, ptr %14, align 4, !tbaa !18
  %16 = call noundef signext i8 @_ZL9U_FAILURE10UErrorCode(i32 noundef %15)
  %17 = icmp ne i8 %16, 0
  br i1 %17, label %18, label %19

18:                                               ; preds = %4
  store i32 0, ptr %5, align 4
  store i32 1, ptr %13, align 4
  br label %105

19:                                               ; preds = %4
  %20 = load ptr, ptr %6, align 8, !tbaa !3
  %21 = icmp eq ptr %20, null
  br i1 %21, label %31, label %22

22:                                               ; preds = %19
  %23 = load i32, ptr %8, align 4, !tbaa !15
  %24 = icmp slt i32 %23, 0
  br i1 %24, label %31, label %25

25:                                               ; preds = %22
  %26 = load i32, ptr %8, align 4, !tbaa !15
  %27 = icmp sgt i32 %26, 0
  br i1 %27, label %28, label %33

28:                                               ; preds = %25
  %29 = load ptr, ptr %7, align 8, !tbaa !26
  %30 = icmp eq ptr %29, null
  br i1 %30, label %31, label %33

31:                                               ; preds = %28, %22, %19
  %32 = load ptr, ptr %9, align 8, !tbaa !17
  store i32 1, ptr %32, align 4, !tbaa !18
  store i32 0, ptr %5, align 4
  store i32 1, ptr %13, align 4
  br label %105

33:                                               ; preds = %28, %25
  store i32 0, ptr %12, align 4, !tbaa !15
  br label %34

34:                                               ; preds = %103, %33
  %35 = load ptr, ptr %6, align 8, !tbaa !3
  %36 = call ptr @u_skipWhitespace(ptr noundef %35)
  store ptr %36, ptr %6, align 8, !tbaa !3
  %37 = load ptr, ptr %6, align 8, !tbaa !3
  %38 = load i8, ptr %37, align 1, !tbaa !8
  %39 = sext i8 %38 to i32
  %40 = icmp eq i32 %39, 59
  br i1 %40, label %46, label %41

41:                                               ; preds = %34
  %42 = load ptr, ptr %6, align 8, !tbaa !3
  %43 = load i8, ptr %42, align 1, !tbaa !8
  %44 = sext i8 %43 to i32
  %45 = icmp eq i32 %44, 0
  br i1 %45, label %46, label %48

46:                                               ; preds = %41, %34
  %47 = load i32, ptr %12, align 4, !tbaa !15
  store i32 %47, ptr %5, align 4
  store i32 1, ptr %13, align 4
  br label %105

48:                                               ; preds = %41
  %49 = load ptr, ptr %6, align 8, !tbaa !3
  %50 = call i64 @strtoul(ptr noundef %49, ptr noundef %10, i32 noundef 16) #7
  %51 = trunc i64 %50 to i32
  store i32 %51, ptr %11, align 4, !tbaa !15
  %52 = load ptr, ptr %10, align 8, !tbaa !3
  %53 = load ptr, ptr %6, align 8, !tbaa !3
  %54 = icmp ule ptr %52, %53
  br i1 %54, label %88, label %55

55:                                               ; preds = %48
  %56 = load ptr, ptr %10, align 8, !tbaa !3
  %57 = load i8, ptr %56, align 1, !tbaa !8
  %58 = sext i8 %57 to i32
  %59 = icmp eq i32 %58, 32
  br i1 %59, label %85, label %60

60:                                               ; preds = %55
  %61 = load ptr, ptr %10, align 8, !tbaa !3
  %62 = load i8, ptr %61, align 1, !tbaa !8
  %63 = sext i8 %62 to i32
  %64 = icmp eq i32 %63, 9
  br i1 %64, label %85, label %65

65:                                               ; preds = %60
  %66 = load ptr, ptr %10, align 8, !tbaa !3
  %67 = load i8, ptr %66, align 1, !tbaa !8
  %68 = sext i8 %67 to i32
  %69 = icmp eq i32 %68, 13
  br i1 %69, label %85, label %70

70:                                               ; preds = %65
  %71 = load ptr, ptr %10, align 8, !tbaa !3
  %72 = load i8, ptr %71, align 1, !tbaa !8
  %73 = sext i8 %72 to i32
  %74 = icmp eq i32 %73, 10
  br i1 %74, label %85, label %75

75:                                               ; preds = %70
  %76 = load ptr, ptr %10, align 8, !tbaa !3
  %77 = load i8, ptr %76, align 1, !tbaa !8
  %78 = sext i8 %77 to i32
  %79 = icmp ne i32 %78, 59
  br i1 %79, label %80, label %85

80:                                               ; preds = %75
  %81 = load ptr, ptr %10, align 8, !tbaa !3
  %82 = load i8, ptr %81, align 1, !tbaa !8
  %83 = sext i8 %82 to i32
  %84 = icmp ne i32 %83, 0
  br i1 %84, label %88, label %85

85:                                               ; preds = %80, %75, %70, %65, %60, %55
  %86 = load i32, ptr %11, align 4, !tbaa !15
  %87 = icmp uge i32 %86, 1114112
  br i1 %87, label %88, label %90

88:                                               ; preds = %85, %80, %48
  %89 = load ptr, ptr %9, align 8, !tbaa !17
  store i32 9, ptr %89, align 4, !tbaa !18
  store i32 0, ptr %5, align 4
  store i32 1, ptr %13, align 4
  br label %105

90:                                               ; preds = %85
  %91 = load i32, ptr %12, align 4, !tbaa !15
  %92 = load i32, ptr %8, align 4, !tbaa !15
  %93 = icmp slt i32 %91, %92
  br i1 %93, label %94, label %101

94:                                               ; preds = %90
  %95 = load i32, ptr %11, align 4, !tbaa !15
  %96 = load ptr, ptr %7, align 8, !tbaa !26
  %97 = load i32, ptr %12, align 4, !tbaa !15
  %98 = add nsw i32 %97, 1
  store i32 %98, ptr %12, align 4, !tbaa !15
  %99 = sext i32 %97 to i64
  %100 = getelementptr inbounds i32, ptr %96, i64 %99
  store i32 %95, ptr %100, align 4, !tbaa !15
  br label %103

101:                                              ; preds = %90
  %102 = load ptr, ptr %9, align 8, !tbaa !17
  store i32 15, ptr %102, align 4, !tbaa !18
  br label %103

103:                                              ; preds = %101, %94
  %104 = load ptr, ptr %10, align 8, !tbaa !3
  store ptr %104, ptr %6, align 8, !tbaa !3
  br label %34, !llvm.loop !28

105:                                              ; preds = %88, %46, %31, %18
  call void @llvm.lifetime.end.p0(i64 4, ptr %12) #7
  call void @llvm.lifetime.end.p0(i64 4, ptr %11) #7
  call void @llvm.lifetime.end.p0(i64 8, ptr %10) #7
  %106 = load i32, ptr %5, align 4
  ret i32 %106
}