; Function Attrs: mustprogress nofree nounwind uwtable
define i32 @u_parseCodePoints(ptr noundef %0, ptr noundef writeonly %1, i32 noundef %2, ptr noundef captures(none) %3) local_unnamed_addr #6 {
  %5 = alloca ptr, align 8
  call void @llvm.lifetime.start.p0(i64 8, ptr nonnull %5) #9
  %6 = load i32, ptr %3, align 4, !tbaa !9
  %7 = icmp slt i32 %6, 1
  br i1 %7, label %8, label %.loopexit

8:                                                ; preds = %4
  %9 = icmp eq ptr %0, null
  %10 = icmp slt i32 %2, 0
  %or.cond = or i1 %9, %10
  br i1 %or.cond, label %.loopexit.sink.split, label %11

11:                                               ; preds = %8
  %12 = icmp ne i32 %2, 0
  %13 = icmp eq ptr %1, null
  %or.cond3 = and i1 %13, %12
  br i1 %or.cond3, label %.loopexit.sink.split, label %.preheader.outer

.preheader.outer:                                 ; preds = %11, %29
  %.027.ph = phi ptr [ %21, %29 ], [ %0, %11 ]
  %.0.ph = phi i32 [ %30, %29 ], [ 0, %11 ]
  %14 = icmp slt i32 %.0.ph, %2
  br label %.preheader

.preheader:                                       ; preds = %.preheader.outer, %33
  %.027 = phi ptr [ %21, %33 ], [ %.027.ph, %.preheader.outer ]
  br label %15

15:                                               ; preds = %.critedge.i, %.preheader
  %.0.i = phi ptr [ %.027, %.preheader ], [ %17, %.critedge.i ]
  %16 = load i8, ptr %.0.i, align 1, !tbaa !3
  switch i8 %16, label %18 [
    i8 32, label %.critedge.i
    i8 9, label %.critedge.i
    i8 13, label %.critedge.i
    i8 10, label %.critedge.i
    i8 59, label %.loopexit
    i8 0, label %.loopexit
  ]

.critedge.i:                                      ; preds = %15, %15, %15, %15
  %17 = getelementptr inbounds nuw i8, ptr %.0.i, i64 1
  br label %15, !llvm.loop !6

18:                                               ; preds = %15
  %19 = call i64 @strtoul(ptr noundef nonnull %.0.i, ptr noundef nonnull %5, i32 noundef 16) #9
  %20 = trunc i64 %19 to i32
  %21 = load ptr, ptr %5, align 8, !tbaa !14
  %.not33 = icmp ugt ptr %21, %.0.i
  br i1 %.not33, label %22, label %.loopexit.sink.split

22:                                               ; preds = %18
  %23 = load i8, ptr %21, align 1, !tbaa !3
  switch i8 %23, label %24 [
    i8 32, label %27
    i8 9, label %27
    i8 13, label %27
    i8 10, label %27
    i8 59, label %27
  ]

24:                                               ; preds = %22
  %25 = icmp ne i8 %23, 0
  %26 = icmp ugt i32 %20, 1114111
  %or.cond5 = select i1 %25, i1 true, i1 %26
  br i1 %or.cond5, label %.loopexit.sink.split, label %28

27:                                               ; preds = %22, %22, %22, %22, %22
  %.old4 = icmp ugt i32 %20, 1114111
  br i1 %.old4, label %.loopexit.sink.split, label %28

28:                                               ; preds = %24, %27
  br i1 %14, label %29, label %33

29:                                               ; preds = %28
  %30 = add nuw nsw i32 %.0.ph, 1
  %31 = zext nneg i32 %.0.ph to i64
  %32 = getelementptr inbounds nuw i32, ptr %1, i64 %31
  store i32 %20, ptr %32, align 4, !tbaa !18
  br label %.preheader.outer, !llvm.loop !20

33:                                               ; preds = %28
  store i32 15, ptr %3, align 4, !tbaa !9
  br label %.preheader, !llvm.loop !20

.loopexit.sink.split:                             ; preds = %18, %24, %27, %8, %11
  %.sink = phi i32 [ 1, %11 ], [ 1, %8 ], [ 9, %27 ], [ 9, %24 ], [ 9, %18 ]
  store i32 %.sink, ptr %3, align 4, !tbaa !9
  br label %.loopexit

.loopexit:                                        ; preds = %15, %15, %.loopexit.sink.split, %4
  %.026 = phi i32 [ 0, %4 ], [ 0, %.loopexit.sink.split ], [ %.0.ph, %15 ], [ %.0.ph, %15 ]
  call void @llvm.lifetime.end.p0(i64 8, ptr nonnull %5) #9
  ret i32 %.026
}